; Function Attrs: mustprogress nofree norecurse nosync nounwind willreturn memory(write, argmem: readwrite, inaccessiblemem: none) uwtable
define hidden noundef zeroext i1 @lxb_html_tree_process_abort(ptr nocapture noundef %0) local_unnamed_addr #3 {
  %2 = getelementptr inbounds i8, ptr %0, i64 112
  %3 = load i32, ptr %2, align 8
  %4 = icmp eq i32 %3, 0
  br i1 %4, label %5, label %6

5:                                                ; preds = %1
  store i32 16, ptr %2, align 8
  br label %6

6:                                                ; preds = %5, %1
  %7 = getelementptr inbounds i8, ptr %0, i64 32
  %8 = load ptr, ptr %7, align 8
  %9 = getelementptr inbounds i8, ptr %8, i64 16
  store i64 0, ptr %9, align 8
  %10 = getelementptr inbounds i8, ptr %0, i64 8
  %11 = load ptr, ptr %10, align 8
  %12 = getelementptr inbounds i8, ptr %11, i64 368
  store i32 3, ptr %12, align 8
  ret i1 true
}